target datalayout = "e-m:e-p270:32:32-p271:32:32-p272:64:64-i64:64-i128:128-f80:128-n8:16:32:64-S128"
target triple = "x86_64-pc-linux-gnu"

%struct.AVFormatContext = type { ptr, ptr, ptr, ptr, ptr, i32, i32, ptr, i32, ptr, i32, ptr, ptr, i64, i64, i64, i32, i32, i32, i64, i64, ptr, i32, i32, ptr, i32, i32, i32, i32, ptr, i64, i32, i32, %struct.AVIOInterruptCB, i32, i32, i32, i32, i64, i32, i32, i32, i32, i32, i32, i32, i32, i32, i32, i32, i32, i64, i32, i32, i32, i32, i32, ptr, ptr, ptr, ptr, i32, ptr, ptr, ptr, ptr, i32, ptr, ptr, i64, ptr, ptr, ptr, i64 }
%struct.AVIOInterruptCB = type { ptr, ptr }
%struct.ASFContext = type { i32, i32, i32, i64, i64, i32, i64, i32, i32, i32, i64, i64, i64, i64, i64, i64, i32, [128 x ptr], [128 x %struct.ASFStreamData], i32, i32, i64, i64, i8, i32, i64, i32, i32, i64, i32, i16, i64, i32, i32 }
%struct.ASFStreamData = type { [32 x i8], ptr, %struct.AVRational }
%struct.AVRational = type { i32, i32 }
%struct.ASFStream = type { i8, i32, i32, i32, i8, i16, i16, i16, %struct.ASFPacket }
%struct.ASFPacket = type { ptr, i64, i32, i32, i32, i32, i32, i8 }

; Function Attrs: nounwind uwtable
define internal i32 @asf_read_close(ptr noundef %0) #0 {
  %2 = alloca ptr, align 8
  %3 = alloca ptr, align 8
  %4 = alloca i32, align 4
  store ptr %0, ptr %2, align 8, !tbaa !13
  call void @llvm.lifetime.start.p0(i64 8, ptr %3) #10
  %5 = load ptr, ptr %2, align 8, !tbaa !13
  %6 = getelementptr inbounds nuw %struct.AVFormatContext, ptr %5, i32 0, i32 3
  %7 = load ptr, ptr %6, align 8, !tbaa !15
  store ptr %7, ptr %3, align 8, !tbaa !30
  call void @llvm.lifetime.start.p0(i64 4, ptr %4) #10
  store i32 0, ptr %4, align 4, !tbaa !42
  br label %8

8:                                                ; preds = %38, %1
  %9 = load i32, ptr %4, align 4, !tbaa !42
  %10 = icmp slt i32 %9, 128
  br i1 %10, label %11, label %41

11:                                               ; preds = %8
  %12 = load ptr, ptr %3, align 8, !tbaa !30
  %13 = getelementptr inbounds nuw %struct.ASFContext, ptr %12, i32 0, i32 18
  %14 = load i32, ptr %4, align 4, !tbaa !42
  %15 = sext i32 %14 to i64
  %16 = getelementptr inbounds [128 x %struct.ASFStreamData], ptr %13, i64 0, i64 %15
  %17 = getelementptr inbounds nuw %struct.ASFStreamData, ptr %16, i32 0, i32 1
  call void @av_dict_free(ptr noundef %17)
  %18 = load i32, ptr %4, align 4, !tbaa !42
  %19 = load ptr, ptr %3, align 8, !tbaa !30
  %20 = getelementptr inbounds nuw %struct.ASFContext, ptr %19, i32 0, i32 19
  %21 = load i32, ptr %20, align 8, !tbaa !52
  %22 = icmp slt i32 %18, %21
  br i1 %22, label %23, label %37

23:                                               ; preds = %11
  %24 = load ptr, ptr %3, align 8, !tbaa !30
  %25 = getelementptr inbounds nuw %struct.ASFContext, ptr %24, i32 0, i32 17
  %26 = load i32, ptr %4, align 4, !tbaa !42
  %27 = sext i32 %26 to i64
  %28 = getelementptr inbounds [128 x ptr], ptr %25, i64 0, i64 %27
  %29 = load ptr, ptr %28, align 8, !tbaa !53
  %30 = getelementptr inbounds nuw %struct.ASFStream, ptr %29, i32 0, i32 8
  %31 = getelementptr inbounds nuw %struct.ASFPacket, ptr %30, i32 0, i32 0
  call void @av_packet_free(ptr noundef %31)
  %32 = load ptr, ptr %3, align 8, !tbaa !30
  %33 = getelementptr inbounds nuw %struct.ASFContext, ptr %32, i32 0, i32 17
  %34 = load i32, ptr %4, align 4, !tbaa !42
  %35 = sext i32 %34 to i64
  %36 = getelementptr inbounds [128 x ptr], ptr %33, i64 0, i64 %35
  call void @av_freep(ptr noundef %36)
  br label %37

37:                                               ; preds = %23, %11
  br label %38

38:                                               ; preds = %37
  %39 = load i32, ptr %4, align 4, !tbaa !42
  %40 = add nsw i32 %39, 1
  store i32 %40, ptr %4, align 4, !tbaa !42
  br label %8, !llvm.loop !105

41:                                               ; preds = %8
  %42 = load ptr, ptr %3, align 8, !tbaa !30
  %43 = getelementptr inbounds nuw %struct.ASFContext, ptr %42, i32 0, i32 19
  store i32 0, ptr %43, align 8, !tbaa !52
  call void @llvm.lifetime.end.p0(i64 4, ptr %4) #10
  call void @llvm.lifetime.end.p0(i64 8, ptr %3) #10
  ret i32 0
}