; Function Attrs: nounwind uwtable
define internal noundef i32 @asf_read_close(ptr noundef readonly captures(none) %0) #1 {
  %2 = getelementptr inbounds nuw i8, ptr %0, i64 24
  %3 = load ptr, ptr %2, align 8, !tbaa !11
  %4 = getelementptr i8, ptr %3, i64 1176
  %5 = getelementptr inbounds nuw i8, ptr %3, i64 7288
  %6 = getelementptr inbounds nuw i8, ptr %3, i64 120
  br label %7

7:                                                ; preds = %1, %16
  %indvars.iv = phi i64 [ 0, %1 ], [ %indvars.iv.next, %16 ]
  %.idx = mul nuw nsw i64 %indvars.iv, 48
  %8 = getelementptr i8, ptr %4, i64 %.idx
  tail call void @av_dict_free(ptr noundef %8) #12
  %9 = load i32, ptr %5, align 8, !tbaa !44
  %10 = sext i32 %9 to i64
  %11 = icmp slt i64 %indvars.iv, %10
  br i1 %11, label %12, label %16

12:                                               ; preds = %7
  %13 = getelementptr inbounds nuw [128 x ptr], ptr %6, i64 0, i64 %indvars.iv
  %14 = load ptr, ptr %13, align 8, !tbaa !45
  %15 = getelementptr inbounds nuw i8, ptr %14, i64 24
  tail call void @av_packet_free(ptr noundef nonnull %15) #12
  tail call void @av_freep(ptr noundef nonnull %13) #12
  br label %16

16:                                               ; preds = %7, %12
  %indvars.iv.next = add nuw nsw i64 %indvars.iv, 1
  %exitcond.not = icmp eq i64 %indvars.iv.next, 128
  br i1 %exitcond.not, label %17, label %7, !llvm.loop !72

17:                                               ; preds = %16
  store i32 0, ptr %5, align 8, !tbaa !44
  ret i32 0
}